(dp0
V1101010001
p1
(lp2
V523051193687
p3
aV18300190229
p4
aV535007617109
p5
aV17629004870
p6
aV40668478845
p7
aV44695433828
p8
aV530149690875
p9
aV522047195522
p10
aV535426412326
p11
aV521213367934
p12
aV525061238515
p13
aV533762667168
p14
aV21979795708
p15
aV537464385576
p16
aV535397393314
p17
aV535955735069
p18
aV41942398552
p19
aV39257782040
p20
aV35480042113
p21
aV536635582221
p22
aV530278465144
p23
aV45886964193
p24
aV45197418793
p25
aV534371450181
p26
aV530944522744
p27
aV35401545304
p28
aV525537172747
p29
aV530567637113
p30
aV526145541122
p31
aV536127199891
p32
aV520228950024
p33
aV534916887521
p34
aV521894662158
p35
aV44609083252
p36
aV527553783539
p37
aV521551161995
p38
aV521947948665
p39
aV528625295041
p40
aV16739965125
p41
aV525593750678
p42
aV535606872743
p43
aV534826109319
p44
aV536015347960
p45
aV530964005953
p46
aV35549684713
p47
aV525141413103
p48
aV21417503811
p49
aV522201671534
p50
aV45807608126
p51
aV45463272418
p52
aV42764664147
p53
aV535706250663
p54
aV524540430718
p55
aV537348103954
p56
aV530811960383
p57
aV42662681072
p58
aV532913098437
p59
aV537173612962
p60
aV522099036343
p61
aV41207550748
p62
aV15711959930
p63
aV42103094738
p64
aV42102735433
p65
aV535597764724
p66
aV528447589727
p67
aV44555521210
p68
aV44533037405
p69
aV43060917471
p70
aV19283848591
p71
aV525740768835
p72
aV536374736683
p73
aV36362554162
p74
aV520354107754
p75
aV45637312002
p76
aV520653206978
p77
aV523399112328
p78
aV531817104423
p79
aV45722818016
p80
aV38746454881
p81
aV536772895663
p82
aV42339968186
p83
aV521363709168
p84
aV536685396888
p85
aV19697876951
p86
aV520230061188
p87
aV535844567145
p88
aV44493063760
p89
aV43703169190
p90
aV19914537745
p91
aV523024419593
p92
aV41895806732
p93
aV41696840972
p94
aV533075518003
p95
aV527457953767
p96
aV526102640396
p97
aV43179170232
p98
aV41743700651
p99
aV40734021640
p100
aV526523629587
p101
aV40053691124
p102
aV527588856606
p103
aV525868321780
p104
aV19913793721
p105
aV535618098371
p106
aV526290409837
p107
aV529029820616
p108
aV22434271941
p109
aV43169376115
p110
aV44629707475
p111
aV41171508685
p112
aV44238418344
p113
aV41609770470
p114
aV529207050661
p115
aV523047774717
p116
aV522192571977
p117
aV529196360365
p118
aV43810877484
p119
aV530917745485
p120
aV525383977402
p121
aV44668236267
p122
aV42506742838
p123
aV535677009149
p124
aV527463147844
p125
aV524818190206
p126
aV532899000908
p127
aV16119218503
p128
aV520596833124
p129
aV534394758681
p130
aV525332455372
p131
aV10361417401
p132
aV45403649064
p133
aV524754861352
p134
aV531973503106
p135
aV534167567693
p136
aV535893275694
p137
aV533216146734
p138
aV35536115792
p139
aV525053396126
p140
aV522636235254
p141
aV38672623532
p142
aV535696268882
p143
aV524683560949
p144
aV35036863708
p145
aV527123406903
p146
aV38645407924
p147
aV530944314961
p148
aV44758320023
p149
aV44397229950
p150
aV45529080654
p151
aV528700105274
p152
aV520792777872
p153
aV522047187392
p154
aV524785367488
p155
aV533058518147
p156
aV535625971444
p157
aV534661881632
p158
aV534151555390
p159
aV526445651914
p160
aV44632016193
p161
aV520812521897
p162
aV524240562809
p163
aV523338347336
p164
aV38214975773
p165
aV531649082606
p166
aV38406772572
p167
aV521333979464
p168
aV535369317675
p169
aV522996342548
p170
aV530544857027
p171
aV530161606654
p172
aV535566610634
p173
aV522558371009
p174
aV520818660555
p175
aV43201936582
p176
aV532782583974
p177
aV530947593395
p178
aV530539546908
p179
aV534310650452
p180
aV535837858702
p181
aV520970011215
p182
aV535346271851
p183
aV27444900228
p184
aV536274544007
p185
aV531584887674
p186
aV19930185855
p187
aV523730411539
p188
aV44693060922
p189
aV43521577461
p190
aV521267974337
p191
aV528332691182
p192
aV530944850229
p193
aV531869992451
p194
aV533991241002
p195
aV16650173313
p196
aV521344166054
p197
aV525348305634
p198
aV37229110113
p199
aV534989986040
p200
aV523165344646
p201
aV533774751533
p202
aV535656830996
p203
aV36424430506
p204
aV40576651302
p205
aV534950068971
p206
aV529392344335
p207
aV35429553079
p208
aV527424485607
p209
aV527753219915
p210
aV525690209259
p211
aV535753671415
p212
aV531432102846
p213
aV536103876881
p214
aV39860137917
p215
aV40236761592
p216
aV536436512834
p217
aV527827928804
p218
aV524476233109
p219
aV530536447313
p220
aV521110795763
p221
aV530739942189
p222
aV525720395818
p223
aV528268595539
p224
aV41797910226
p225
aV41531961331
p226
aV527745571392
p227
aV44848173346
p228
aV38835219566
p229
aV520795521941
p230
aV45680632297
p231
aV44677621708
p232
aV537541116783
p233
aV36309530968
p234
aV534955917209
p235
aV42578931855
p236
aV531455064608
p237
aV535450075734
p238
aV532879161110
p239
aV526421348362
p240
aV521507143370
p241
aV523889842459
p242
aV22640156253
p243
aV525607480187
p244
aV41733523131
p245
aV14053163252
p246
aV523919274438
p247
aV523113988869
p248
aV525861115968
p249
aV44866143801
p250
aV526446339342
p251
aV40868073867
p252
aV42730515904
p253
aV525966627846
p254
aV523873880429
p255
aV36445201508
p256
aV44362566775
p257
aV529764514659
p258
aV35799000254
p259
aV41231632160
p260
aV525597197292
p261
aV522639169819
p262
aV536647469840
p263
aV529191536748
p264
aV529099595433
p265
aV41938404646
p266
aV531924830985
p267
aV524870670715
p268
aV525765493415
p269
aV42614381438
p270
aV520547017776
p271
aV534211519561
p272
aV528499088517
p273
aV525761181092
p274
aV527434641456
p275
aV536001993680
p276
aV528967790483
p277
aV41357899927
p278
aV43502180211
p279
aV536219903386
p280
aV521327391628
p281
aV535520050213
p282
aV38753961050
p283
aV530758377648
p284
aV534857603076
p285
aV531427646224
p286
aV40089518903
p287
aV528949912927
p288
aV527959672694
p289
aV523133415473
p290
aV40533411582
p291
aV18399468363
p292
aV43627163100
p293
aV36310551559
p294
aV530539670743
p295
aV17209511126
p296
aV528917912117
p297
aV42889505621
p298
aV531617514474
p299
aV535959391918
p300
aV523038175935
p301
aV525155937123
p302
aV525337737454
p303
aV520356198491
p304
aV37230819835
p305
aV530876991619
p306
aV535654078063
p307
aV533351348705
p308
aV522942007947
p309
aV532926409776
p310
aV522974575792
p311
aV36922257476
p312
aV39616881534
p313
aV35608697981
p314
aV40882140938
p315
aV526961548187
p316
aV43822946178
p317
aV521230903613
p318
aV40414756255
p319
aV525390628320
p320
aV35588457615
p321
aV524851911610
p322
aV19410806745
p323
aV533867563810
p324
aV520470041539
p325
aV534913471972
p326
aV27397100846
p327
aV43876060019
p328
aV37074096038
p329
aV534275361314
p330
aV523161027825
p331
aV525784540500
p332
aV531582047989
p333
aV41089177928
p334
aV44715596234
p335
aV43135390463
p336
aV534280660072
p337
aV527468803902
p338
aV525346369194
p339
aV523000119710
p340
aV45150096223
p341
aV527855923520
p342
aV535713480511
p343
aV522028670283
p344
aV528390584515
p345
aV536672805286
p346
aV522997569683
p347
aV529352868226
p348
aV43929182647
p349
aV535729040928
p350
aV537305573400
p351
aV19401994819
p352
aV528774229640
p353
aV535815001343
p354
aV527684962764
p355
aV533121064327
p356
aV37369593467
p357
aV43201141066
p358
aV10788681684
p359
aV532853585423
p360
aV535692676165
p361
aV532042012829
p362
aV527087854161
p363
aV42261895611
p364
aV14685920621
p365
aV531881762139
p366
aV527569955157
p367
aV535994138736
p368
aV534412526110
p369
aV531880242676
p370
aV15623870355
p371
aV536966570737
p372
aV527104349578
p373
aV44631039985
p374
aV36452980840
p375
aV36996360707
p376
aV535914597145
p377
aV529185352630
p378
aV527750786032
p379
aV45236854046
p380
aV531553825753
p381
aV534411214191
p382
aV45870605098
p383
aV526067928390
p384
aV44851541620
p385
aV531714928464
p386
aV44297453127
p387
aV527471116944
p388
aV40265094385
p389
aV20136454634
p390
aV42175707118
p391
aV528682858018
p392
aV14830349152
p393
aV529054146540
p394
aV522888459286
p395
aV524673653004
p396
aV44069587455
p397
aV37369727673
p398
aV524586516357
p399
aV520399355636
p400
aV523309246022
p401
aV535458356391
p402
aV537152615621
p403
aV45586096305
p404
aV525728693845
p405
aV523081462293
p406
aV21706580448
p407
aV38774409857
p408
aV534679137253
p409
aV39292723610
p410
aV522069500408
p411
aV40882212554
p412
aV45414071378
p413
aV530558233580
p414
aV43986953863
p415
aV535551015017
p416
aV534919750291
p417
aV35548531393
p418
aV41615787227
p419
aV534753012511
p420
aV536372889458
p421
aV530996348627
p422
aV536712700033
p423
aV520771059920
p424
aV528686486143
p425
aV536248193190
p426
aV531643158038
p427
aV42904882131
p428
aV20149865219
p429
aV524628227125
p430
aV45124773106
p431
aV536597033230
p432
aV528129819280
p433
aV36084306391
p434
aV42859906375
p435
aV43363972126
p436
aV536623587187
p437
aV535594816337
p438
aV524911424986
p439
aV525527470218
p440
aV39228622651
p441
aV527925340818
p442
aV26830920163
p443
aV526406318845
p444
aV534177735371
p445
aV524855729616
p446
aV532092781974
p447
aV523907655017
p448
aV535415554943
p449
aV531459413337
p450
aV534857535755
p451
aV40107673368
p452
aV536632861268
p453
aV521961024539
p454
aV522040716616
p455
aV522076703599
p456
aV45571456861
p457
aV526938327750
p458
aV45291265494
p459
aV42672755904
p460
aV523106054038
p461
aV536441800551
p462
aV45917460367
p463
aV534718880867
p464
aV522702177363
p465
aV41654130845
p466
aV520385824909
p467
aV530890930293
p468
aV534864655161
p469
aV44221253897
p470
aV534676105017
p471
aV524640999453
p472
aV41443512985
p473
aV18677551797
p474
aV521260932569
p475
aV41405839517
p476
aV532079538341
p477
aV534944066026
p478
aV35431405691
p479
aV532638805520
p480
aV527859979919
p481
aV36636820849
p482
aV524793778946
p483
aV535401674477
p484
aV38724091915
p485
aV534906803429
p486
aV531689673196
p487
aV525376569957
p488
aV532612234362
p489
aV536611582350
p490
aV524228978673
p491
aV20308712794
p492
aV535620346565
p493
aV42911849349
p494
aV16793446333
p495
aV44181109745
p496
aV535737262801
p497
aV528590246544
p498
aV37697584824
p499
aV39437490650
p500
aV534023970607
p501
aV528421906187
p502
aV41067614416
p503
aV535440856909
p504
aV44524800634
p505
aV40103614798
p506
aV526508307590
p507
aV532065819111
p508
aV529804500696
p509
aV536711708857
p510
aV42319350625
p511
aV523789367877
p512
aV536538749631
p513
aV532778805981
p514
aV42882522983
p515
aV529366829480
p516
aV42627269889
p517
aV527443734037
p518
aV45848673752
p519
aV521259693013
p520
aV532899396125
p521
aV537283574339
p522
aV535049992004
p523
aV530280694004
p524
aV533308113345
p525
aV521370237467
p526
aV42761721485
p527
aV524929427086
p528
aV527323844767
p529
aV37865067446
p530
aV531745291278
p531
aV525124140615
p532
aV39860397650
p533
aV520045584422
p534
aV532980217138
p535
aV44467589529
p536
aV527302653613
p537
aV532978669478
p538
aV521264033213
p539
aV527846827604
p540
aV526250229256
p541
aV521745737133
p542
aV526956338612
p543
aV533852233700
p544
aV43808258053
p545
aV534991264335
p546
aV524461352863
p547
aV529122777173
p548
aV532636685491
p549
aV536295660812
p550
aV37864231434
p551
aV43873640001
p552
aV520061424012
p553
aV524797306615
p554
aV529092663864
p555
aV536633565746
p556
aV44605139337
p557
aV535614794133
p558
aV41025076202
p559
aV18053324817
p560
aV535607174168
p561
aV43213871009
p562
aV529641860960
p563
aV528067700886
p564
aV525430499008
p565
aV528741151275
p566
aV520857254797
p567
aV534680729808
p568
aV535873738010
p569
aV531599335945
p570
aV521073338461
p571
aV522066706640
p572
aV528414841816
p573
aV36987960615
p574
aV528092879363
p575
aV43613318535
p576
aV535924197329
p577
aV530277625742
p578
aV532981573741
p579
aV531434740047
p580
aV537112819284
p581
aV36576951454
p582
aV44696897752
p583
aV528953285229
p584
aV526880387944
p585
aV525510040307
p586
aV527839779446
p587
aV27278688049
p588
aV529496571134
p589
aV524310502552
p590
aV41050083060
p591
aV525083364758
p592
aV43945739371
p593
aV21703488813
p594
aV42916077457
p595
aV44553304387
p596
aV535717808340
p597
aV524736377737
p598
aV45260820753
p599
aV527993213365
p600
aV526399808193
p601
aV520154221074
p602
aV40033148150
p603
aV41557123660
p604
aV527789684050
p605
aV530277217048
p606
aV522019965418
p607
aV13915321564
p608
aV527603597914
p609
aV526567060071
p610
aV537077441091
p611
aV529429056192
p612
aV41948376246
p613
aV531708348383
p614
aV526000875287
p615
aV43739295532
p616
aV537499381449
p617
aV536550298881
p618
aV40626732015
p619
aV531716652456
p620
aV36683516308
p621
aV534697364856
p622
aV537039810306
p623
aV533217775550
p624
aV529180036074
p625
aV535482115987
p626
aV37139250902
p627
aV44693540145
p628
aV45677624020
p629
aV528601120696
p630
aV531176077848
p631
aV36579165566
p632
aV534246449460
p633
aV38665865410
p634
aV533942745567
p635
aV530964561211
p636
aV536022718314
p637
aV523399196435
p638
aV43432977011
p639
aV526985304719
p640
aV44692258243
p641
aV39448468323
p642
aV45526070360
p643
aV522097154552
p644
aV45244073673
p645
aV532179864305
p646
aV37617706101
p647
aV527416240367
p648
aV40137592493
p649
aV40921113538
p650
aV520112729643
p651
aV45616054974
p652
aV536643929244
p653
aV526046962878
p654
aV39965351126
p655
aV38621375425
p656
aV43518569376
p657
aV529060507846
p658
aV523067720744
p659
aV530314404737
p660
aV19958136561
p661
aV40487374992
p662
aV527929538990
p663
aV45397249621
p664
aV43668486620
p665
aV40143435057
p666
aV15961613841
p667
aV532134484978
p668
aV40087645152
p669
aV529186128921
p670
aV44949267334
p671
aV535884162846
p672
aV523218093227
p673
aV16809598790
p674
aV14052695926
p675
aV39060732690
p676
aV45611287225
p677
aV529515935236
p678
aV524722795232
p679
aV528292897842
p680
aV529109465356
p681
aV526193280093
p682
aV14825918250
p683
aV527719753586
p684
aV534869294368
p685
aV525765397353
p686
aV19692669737
p687
aV525041713399
p688
aV534574423501
p689
aV534094815662
p690
aV535892766764
p691
aV535853465104
p692
aV525169560546
p693
aV25111692423
p694
aV530798693669
p695
aV521879039366
p696
aV534988340515
p697
aV520671499445
p698
aV535625282773
p699
aV520548450727
p700
aV22849468046
p701
aV521241449653
p702
aV44815660161
p703
aV44551764164
p704
aV524905041330
p705
aV527578609105
p706
aV535825110247
p707
aV534726990744
p708
aV524010134895
p709
aV36170347041
p710
aV45159608605
p711
aV525164776958
p712
aV532087746924
p713
aV530386418337
p714
aV529096727636
p715
aV530893791103
p716
aV537251392888
p717
aV524281639534
p718
aV527767529113
p719
aV535915643832
p720
aV534482669015
p721
aV43205704098
p722
aV525764894234
p723
aV525940062926
p724
aV43857201295
p725
aV522854938361
p726
aV529486180165
p727
aV528076172460
p728
aV534313810768
p729
aV534668235684
p730
aV535985134290
p731
aV534611980387
p732
aV536096196555
p733
aV535553598160
p734
aV39623984663
p735
aV537452655328
p736
aV537420466617
p737
aV528230805192
p738
aV35537020445
p739
aV535415602902
p740
aV534168391490
p741
aV44523204100
p742
aV536642077036
p743
aV537594816488
p744
aV40752516097
p745
aV531550362058
p746
aV536351578271
p747
aV36446107930
p748
aV45792265710
p749
aV528635168431
p750
aV36402685521
p751
aV534954925364
p752
aV521359977008
p753
aV528380638531
p754
aV39107045123
p755
aV532959756398
p756
aV19552765665
p757
aV529379030366
p758
aV40365732306
p759
aV536690594217
p760
aV525967343990
p761
aV41730780381
p762
aV536452452266
p763
aV535574763091
p764
aV39924464200
p765
aV533010880660
p766
aV39965137170
p767
aV535809156699
p768
aV534709480541
p769
aV536336710738
p770
aV14549758502
p771
aV531687553762
p772
aV531928864320
p773
aV17054397922
p774
aV529089352941
p775
aV39949048560
p776
aV524801304369
p777
aV527298157934
p778
aV521670128281
p779
aV525927146084
p780
aV529002889465
p781
aV526973274946
p782
aV44164397506
p783
aV525228990697
p784
aV525786297475
p785
aV43488726412
p786
aV526281128101
p787
aV524023209551
p788
aV532044117971
p789
aV38904700243
p790
aV528590315734
p791
aV38951515562
p792
aV535958932412
p793
aV536042460918
p794
aV12999350150
p795
aV523186803123
p796
aV524426229899
p797
aV40034096840
p798
aV528235291059
p799
aV44762483203
p800
aV532119752993
p801
aV40566560835
p802
aV530995408357
p803
aV42924294287
p804
aV520354215437
p805
aV534664991580
p806
aV524862956414
p807
aV529054423250
p808
aV42782981885
p809
aV531797183571
p810
aV529089548687
p811
aV36399516888
p812
aV521320604602
p813
aV532967364785
p814
aV525064265929
p815
aV526305076272
p816
aV534142031296
p817
aV21850700907
p818
aV534280356942
p819
aV531879029918
p820
aV527196661547
p821
aV530937728696
p822
aV535927049729
p823
aV14970974353
p824
aV530992088742
p825
aV36314514969
p826
aV45908136731
p827
aV529728298067
p828
aV529206562835
p829
aV527254459256
p830
aV525144949256
p831
aV531544058670
p832
aV10361168039
p833
aV42738427754
p834
aV529057019377
p835
aV532899708814
p836
aV536986129275
p837
aV533069435090
p838
aV537100115833
p839
aV535641740438
p840
aV44984923660
p841
aV525779960578
p842
aV529129340645
p843
aV524214549568
p844
aV520511543842
p845
aV535496687528
p846
aV522064145806
p847
aV524783873045
p848
aV37372412251
p849
aV35347452637
p850
aV527371506514
p851
aV521121096363
p852
aV528215706113
p853
aV535886594120
p854
aV531610378087
p855
aV41667965506
p856
aV534622945820
p857
aV530888688238
p858
aV40121833852
p859
aV39627452934
p860
aV35670570788
p861
aV18529262589
p862
aV43875657443
p863
aV43880400582
p864
aV520768062486
p865
aV528653530132
p866
aV38152632100
p867
aV525381844639
p868
aV524389507641
p869
aV528058569120
p870
aV536623252974
p871
aV527313253651
p872
aV528586283358
p873
aV42041457280
p874
aV43554847882
p875
aV537463861319
p876
aV529428500925
p877
aV535717696014
p878
aV535779760031
p879
aV39250571578
p880
aV25312752685
p881
aV44820444524
p882
aV534807167040
p883
aV531840977293
p884
aV38778837280
p885
aV522636209812
p886
aV525114315339
p887
aV528339361047
p888
aV528711113918
p889
aV524762941448
p890
aV41297118774
p891
aV41982352978
p892
aV526089989269
p893
aV15886940224
p894
aV40034176641
p895
aV535448561215
p896
aV16838521631
p897
aV537192858045
p898
aV534873174269
p899
aV26149928071
p900
aV44760046284
p901
aV528436385298
p902
aV527414090654
p903
aV520667470879
p904
aV521056411645
p905
aV536610547413
p906
aV535282043943
p907
aV536306791737
p908
aV37144831156
p909
aV528644309372
p910
aV41344685404
p911
aV534805295284
p912
aV535960179946
p913
aV41815407381
p914
aV45395782949
p915
aV529097291720
p916
aV533984228352
p917
aV40970375456
p918
aV35548841261
p919
aV45699352137
p920
aV38794636434
p921
aV40529092294
p922
aV23055788201
p923
aV525729710602
p924
aV35671233569
p925
aV44305533540
p926
aV41239604301
p927
aV41145173824
p928
aV527942917004
p929
aV36976762801
p930
aV37289165310
p931
aV43873680043
p932
aV534973706734
p933
aV15767726977
p934
aV36309470548
p935
aV15683446715
p936
aV526038610294
p937
aV531817811079
p938
aV537534644361
p939
aV534441121017
p940
aV536810680091
p941
aV526210099403
p942
aV520413769594
p943
aV530890291955
p944
aV41933833686
p945
aV521748725499
p946
aV530835331957
p947
aV535611906290
p948
aV530944654522
p949
aV532087368222
p950
aV523763420895
p951
aV537165856495
p952
aV44824360318
p953
aV525722022626
p954
aV36318184928
p955
aV531868999389
p956
aV527095200067
p957
aV524457364416
p958
aV537158563082
p959
aV42461776288
p960
aV40010096720
p961
aV535553326296
p962
aV41985396489
p963
aV534530446531
p964
aV533660266048
p965
aV526451675359
p966
aV521671164134
p967
aV531383475672
p968
aV530785662663
p969
aV16733158033
p970
aV525903199749
p971
aV528067872797
p972
aV40428339387
p973
aV44715488487
p974
aV530849072924
p975
aV532480839910
p976
aV36945212988
p977
aV40504715391
p978
aV18855469139
p979
aV523188072184
p980
aV536021317482
p981
aV533340744565
p982
aV535824410967
p983
aV534246385580
p984
aV534379928156
p985
aV15514826279
p986
aV42858943086
p987
aV523821944929
p988
aV528405592111
p989
aV42192588223
p990
aV535735060629
p991
aV523397637547
p992
aV527453304374
p993
aV523932697495
p994
aV20453884944
p995
aV523789539703
p996
aV537278702543
p997
aV39998712239
p998
aV528053977841
p999
aV526253981084
p1000
aV527660119726
p1001
aV43700332222
p1002
aV531225104258
p1003
aV534760905086
p1004
aV45768961811
p1005
aV522991983581
p1006
aV531548467406
p1007
aV41089597079
p1008
aV522066870170
p1009
aV40332179223
p1010
aV534912675625
p1011
aV529045731796
p1012
aV533898171607
p1013
aV19423821671
p1014
aV44108698451
p1015
aV535643902075
p1016
aV536562515338
p1017
aV39996189201
p1018
aV522047443107
p1019
aV535483588029
p1020
aV39786719509
p1021
aV44631319606
p1022
aV520354261286
p1023
aV529288647499
p1024
aV536617423017
p1025
aV43021253563
p1026
aV41658008873
p1027
aV526217987982
p1028
aV18341395813
p1029
aV44446776187
p1030
aV44526335208
p1031
aV534264169858
p1032
aV38242148662
p1033
aV528390379109
p1034
aV537510357129
p1035
aV521342144574
p1036
aV536326660657
p1037
aV42044318451
p1038
aV536342746733
p1039
aV522063969706
p1040
aV536060288630
p1041
aV534735182903
p1042
aV45923120363
p1043
aV38922256493
p1044
aV530481125715
p1045
aV526255146631
p1046
aV532484675922
p1047
aV40485537085
p1048
aV533307013655
p1049
aV526248534249
p1050
aV535652550815
p1051
aV43432901580
p1052
aV525407028269
p1053
aV520600118481
p1054
aV523925435072
p1055
aV40599803890
p1056
aV528041962804
p1057
aV528592838271
p1058
as.